target datalayout = "e-m:e-p270:32:32-p271:32:32-p272:64:64-i64:64-i128:128-f80:128-n8:16:32:64-S128"
target triple = "x86_64-pc-linux-gnu"

%struct._packet_info = type { ptr, ptr, i32, i32, %struct.nstime_t, %struct.nstime_t, %struct.nstime_t, i8, ptr, ptr, ptr, ptr, %struct._address, %struct._address, %struct._address, %struct._address, %struct._address, %struct._address, i32, ptr, i8, [3 x i8], %struct.anon, i32, i32, i32, i32, ptr, i8, ptr, ptr, i16, i16, i32, i32, i16, i32, i32, ptr, ptr, ptr, i8, i8, i16, i16, i16, i32, i16, i16, ptr, ptr, ptr, ptr, ptr, i32, i32 }
%struct.nstime_t = type { i64, i32 }
%struct._address = type { i32, i32, ptr, ptr }
%struct.anon = type { i8, [3 x i8] }

; Function Attrs: null_pointer_is_valid sspstrong uwtable
define hidden i32 @check_heur_msg_type(ptr noundef %0) #0 {
  %2 = alloca i32, align 4
  %3 = alloca ptr, align 8
  %4 = alloca i32, align 4
  %5 = alloca ptr, align 8
  %6 = alloca i32, align 4
  %7 = alloca i32, align 4
  store ptr %0, ptr %3, align 8
  call void @llvm.lifetime.start.p0(i64 4, ptr %4) #9
  store i32 2, ptr %4, align 4
  call void @llvm.lifetime.start.p0(i64 8, ptr %5) #9
  store ptr null, ptr %5, align 8
  call void @llvm.lifetime.start.p0(i64 4, ptr %6) #9
  store i32 0, ptr %6, align 4
  %8 = load ptr, ptr %3, align 8
  %9 = getelementptr inbounds nuw %struct._packet_info, ptr %8, i32 0, i32 16
  %10 = getelementptr inbounds nuw %struct._address, ptr %9, i32 0, i32 0
  %11 = load i32, ptr %10, align 8
  %12 = call i32 @get_osi_address_type()
  %13 = icmp ne i32 %11, %12
  br i1 %13, label %21, label %14

14:                                               ; preds = %1
  %15 = load ptr, ptr %3, align 8
  %16 = getelementptr inbounds nuw %struct._packet_info, ptr %15, i32 0, i32 17
  %17 = getelementptr inbounds nuw %struct._address, ptr %16, i32 0, i32 0
  %18 = load i32, ptr %17, align 8
  %19 = call i32 @get_osi_address_type()
  %20 = icmp ne i32 %18, %19
  br i1 %20, label %21, label %23

21:                                               ; preds = %14, %1
  %22 = load i32, ptr %4, align 4
  store i32 %22, ptr %2, align 4
  store i32 1, ptr %7, align 4
  br label %105

23:                                               ; preds = %14
  %24 = load ptr, ptr %3, align 8
  %25 = getelementptr inbounds nuw %struct._packet_info, ptr %24, i32 0, i32 16
  %26 = getelementptr inbounds nuw %struct._address, ptr %25, i32 0, i32 1
  %27 = load i32, ptr %26, align 4
  %28 = icmp ne i32 %27, 20
  br i1 %28, label %35, label %29

29:                                               ; preds = %23
  %30 = load ptr, ptr %3, align 8
  %31 = getelementptr inbounds nuw %struct._packet_info, ptr %30, i32 0, i32 17
  %32 = getelementptr inbounds nuw %struct._address, ptr %31, i32 0, i32 1
  %33 = load i32, ptr %32, align 4
  %34 = icmp ne i32 %33, 20
  br i1 %34, label %35, label %37

35:                                               ; preds = %29, %23
  %36 = load i32, ptr %4, align 4
  store i32 %36, ptr %2, align 4
  store i32 1, ptr %7, align 4
  br label %105

37:                                               ; preds = %29
  %38 = load ptr, ptr %3, align 8
  %39 = getelementptr inbounds nuw %struct._packet_info, ptr %38, i32 0, i32 16
  %40 = getelementptr inbounds nuw %struct._address, ptr %39, i32 0, i32 2
  %41 = load ptr, ptr %40, align 8
  store ptr %41, ptr %5, align 8
  %42 = load ptr, ptr %5, align 8
  %43 = getelementptr i8, ptr %42, i64 0
  %44 = load i8, ptr %43, align 1
  %45 = zext i8 %44 to i32
  %46 = shl i32 %45, 24
  %47 = load ptr, ptr %5, align 8
  %48 = getelementptr i8, ptr %47, i64 1
  %49 = load i8, ptr %48, align 1
  %50 = zext i8 %49 to i32
  %51 = shl i32 %50, 16
  %52 = or i32 %46, %51
  %53 = load ptr, ptr %5, align 8
  %54 = getelementptr i8, ptr %53, i64 2
  %55 = load i8, ptr %54, align 1
  %56 = zext i8 %55 to i32
  %57 = shl i32 %56, 8
  %58 = or i32 %52, %57
  %59 = load ptr, ptr %5, align 8
  %60 = getelementptr i8, ptr %59, i64 3
  %61 = load i8, ptr %60, align 1
  %62 = zext i8 %61 to i32
  %63 = or i32 %58, %62
  store i32 %63, ptr %6, align 4
  %64 = load i32, ptr %6, align 4
  %65 = icmp eq i32 %64, 1191192513
  br i1 %65, label %69, label %66

66:                                               ; preds = %37
  %67 = load i32, ptr %6, align 4
  %68 = icmp eq i32 %67, 1191192385
  br i1 %68, label %69, label %70

69:                                               ; preds = %66, %37
  store i32 1, ptr %4, align 4
  br label %70

70:                                               ; preds = %69, %66
  %71 = load ptr, ptr %3, align 8
  %72 = getelementptr inbounds nuw %struct._packet_info, ptr %71, i32 0, i32 17
  %73 = getelementptr inbounds nuw %struct._address, ptr %72, i32 0, i32 2
  %74 = load ptr, ptr %73, align 8
  store ptr %74, ptr %5, align 8
  %75 = load ptr, ptr %5, align 8
  %76 = getelementptr i8, ptr %75, i64 0
  %77 = load i8, ptr %76, align 1
  %78 = zext i8 %77 to i32
  %79 = shl i32 %78, 24
  %80 = load ptr, ptr %5, align 8
  %81 = getelementptr i8, ptr %80, i64 1
  %82 = load i8, ptr %81, align 1
  %83 = zext i8 %82 to i32
  %84 = shl i32 %83, 16
  %85 = or i32 %79, %84
  %86 = load ptr, ptr %5, align 8
  %87 = getelementptr i8, ptr %86, i64 2
  %88 = load i8, ptr %87, align 1
  %89 = zext i8 %88 to i32
  %90 = shl i32 %89, 8
  %91 = or i32 %85, %90
  %92 = load ptr, ptr %5, align 8
  %93 = getelementptr i8, ptr %92, i64 3
  %94 = load i8, ptr %93, align 1
  %95 = zext i8 %94 to i32
  %96 = or i32 %91, %95
  store i32 %96, ptr %6, align 4
  %97 = load i32, ptr %6, align 4
  %98 = icmp eq i32 %97, 1191192513
  br i1 %98, label %102, label %99

99:                                               ; preds = %70
  %100 = load i32, ptr %6, align 4
  %101 = icmp eq i32 %100, 1191192385
  br i1 %101, label %102, label %103

102:                                              ; preds = %99, %70
  store i32 0, ptr %4, align 4
  br label %103

103:                                              ; preds = %102, %99
  %104 = load i32, ptr %4, align 4
  store i32 %104, ptr %2, align 4
  store i32 1, ptr %7, align 4
  br label %105

105:                                              ; preds = %103, %35, %21
  call void @llvm.lifetime.end.p0(i64 4, ptr %6) #9
  call void @llvm.lifetime.end.p0(i64 8, ptr %5) #9
  call void @llvm.lifetime.end.p0(i64 4, ptr %4) #9
  %106 = load i32, ptr %2, align 4
  ret i32 %106
}