; Function Attrs: null_pointer_is_valid sspstrong uwtable
define hidden range(i32 0, 3) i32 @check_heur_msg_type(ptr noundef readonly captures(none) %0) local_unnamed_addr #0 {
  %2 = getelementptr inbounds nuw i8, ptr %0, i64 208
  %3 = load i32, ptr %2, align 8
  %4 = tail call i32 @get_osi_address_type()
  %.not = icmp eq i32 %3, %4
  br i1 %.not, label %5, label %54

5:                                                ; preds = %1
  %6 = getelementptr inbounds nuw i8, ptr %0, i64 232
  %7 = load i32, ptr %6, align 8
  %8 = tail call i32 @get_osi_address_type()
  %.not25 = icmp eq i32 %7, %8
  br i1 %.not25, label %9, label %54

9:                                                ; preds = %5
  %10 = getelementptr inbounds nuw i8, ptr %0, i64 212
  %11 = load i32, ptr %10, align 4
  %.not26 = icmp eq i32 %11, 20
  br i1 %.not26, label %12, label %54

12:                                               ; preds = %9
  %13 = getelementptr inbounds nuw i8, ptr %0, i64 236
  %14 = load i32, ptr %13, align 4
  %.not27 = icmp eq i32 %14, 20
  br i1 %.not27, label %15, label %54

15:                                               ; preds = %12
  %16 = getelementptr inbounds nuw i8, ptr %0, i64 216
  %17 = load ptr, ptr %16, align 8
  %18 = load i8, ptr %17, align 1
  %19 = zext i8 %18 to i32
  %20 = shl nuw i32 %19, 24
  %21 = getelementptr i8, ptr %17, i64 1
  %22 = load i8, ptr %21, align 1
  %23 = zext i8 %22 to i32
  %24 = shl nuw nsw i32 %23, 16
  %25 = or disjoint i32 %24, %20
  %26 = getelementptr i8, ptr %17, i64 2
  %27 = load i8, ptr %26, align 1
  %28 = zext i8 %27 to i32
  %29 = shl nuw nsw i32 %28, 8
  %30 = or disjoint i32 %25, %29
  %31 = getelementptr i8, ptr %17, i64 3
  %32 = load i8, ptr %31, align 1
  %33 = and i8 %32, 127
  %.masked = zext nneg i8 %33 to i32
  %34 = or disjoint i32 %30, %.masked
  %or.cond = icmp eq i32 %34, 1191192385
  %spec.select = select i1 %or.cond, i32 1, i32 2
  %35 = getelementptr inbounds nuw i8, ptr %0, i64 240
  %36 = load ptr, ptr %35, align 8
  %37 = load i8, ptr %36, align 1
  %38 = zext i8 %37 to i32
  %39 = shl nuw i32 %38, 24
  %40 = getelementptr i8, ptr %36, i64 1
  %41 = load i8, ptr %40, align 1
  %42 = zext i8 %41 to i32
  %43 = shl nuw nsw i32 %42, 16
  %44 = or disjoint i32 %43, %39
  %45 = getelementptr i8, ptr %36, i64 2
  %46 = load i8, ptr %45, align 1
  %47 = zext i8 %46 to i32
  %48 = shl nuw nsw i32 %47, 8
  %49 = or disjoint i32 %44, %48
  %50 = getelementptr i8, ptr %36, i64 3
  %51 = load i8, ptr %50, align 1
  %52 = and i8 %51, 127
  %.masked28 = zext nneg i8 %52 to i32
  %53 = or disjoint i32 %49, %.masked28
  %or.cond3 = icmp eq i32 %53, 1191192385
  %.1 = select i1 %or.cond3, i32 0, i32 %spec.select
  br label %54

54:                                               ; preds = %9, %12, %1, %5, %15
  %.024 = phi i32 [ %.1, %15 ], [ 2, %5 ], [ 2, %1 ], [ 2, %12 ], [ 2, %9 ]
  ret i32 %.024
}